target datalayout = "e-m:e-p270:32:32-p271:32:32-p272:64:64-i64:64-i128:128-f80:128-n8:16:32:64-S128"
target triple = "x86_64-pc-linux-gnu"

%"class.llvm::TargetLibraryInfo" = type { ptr, %"class.std::bitset" }
%"class.std::bitset" = type { %"struct.std::_Base_bitset" }
%"struct.std::_Base_bitset" = type { [8 x i64] }
%"class.llvm::AnalysisManager" = type { %"class.llvm::DenseMap.86", %"class.llvm::DenseMap.89", %"class.llvm::DenseMap.92" }
%"class.llvm::DenseMap.86" = type <{ ptr, i32, i32, i32, [4 x i8] }>
%"class.llvm::DenseMap.89" = type <{ ptr, i32, i32, i32, [4 x i8] }>
%"class.llvm::DenseMap.92" = type <{ ptr, i32, i32, i32, [4 x i8] }>
%"class.llvm::TargetLibraryInfoWrapperPass" = type { %"class.llvm::ImmutablePass.base", [4 x i8], %"class.llvm::TargetLibraryAnalysis", %"class.std::optional.109" }
%"class.llvm::ImmutablePass.base" = type { %"class.llvm::ModulePass.base" }
%"class.llvm::ModulePass.base" = type { %"class.llvm::Pass.base" }
%"class.llvm::Pass.base" = type <{ ptr, ptr, ptr, i32 }>
%"class.llvm::TargetLibraryAnalysis" = type { %"class.std::optional.95" }
%"class.std::optional.95" = type { %"struct.std::_Optional_base.96" }
%"struct.std::_Optional_base.96" = type { %"struct.std::_Optional_payload.98" }
%"struct.std::_Optional_payload.98" = type { %"struct.std::_Optional_payload.base", [7 x i8] }
%"struct.std::_Optional_payload.base" = type { %"struct.std::_Optional_payload_base.base" }
%"struct.std::_Optional_payload_base.base" = type <{ %"union.std::_Optional_payload_base<llvm::TargetLibraryInfoImpl>::_Storage", i8 }>
%"union.std::_Optional_payload_base<llvm::TargetLibraryInfoImpl>::_Storage" = type { %"class.llvm::TargetLibraryInfoImpl" }
%"class.llvm::TargetLibraryInfoImpl" = type { [126 x i8], [2 x i8], %"class.llvm::DenseMap.101", i8, i8, i8, i8, i32, %"class.std::vector", %"class.std::vector" }
%"class.llvm::DenseMap.101" = type <{ ptr, i32, i32, i32, [4 x i8] }>
%"class.std::vector" = type { %"struct.std::_Vector_base" }
%"struct.std::_Vector_base" = type { %"struct.std::_Vector_base<llvm::VecDesc, std::allocator<llvm::VecDesc>>::_Vector_impl" }
%"struct.std::_Vector_base<llvm::VecDesc, std::allocator<llvm::VecDesc>>::_Vector_impl" = type { %"struct.std::_Vector_base<llvm::VecDesc, std::allocator<llvm::VecDesc>>::_Vector_impl_data" }
%"struct.std::_Vector_base<llvm::VecDesc, std::allocator<llvm::VecDesc>>::_Vector_impl_data" = type { ptr, ptr, ptr }
%"class.std::optional.109" = type { %"struct.std::_Optional_base.110" }
%"struct.std::_Optional_base.110" = type { %"struct.std::_Optional_payload.112" }
%"struct.std::_Optional_payload.112" = type { %"struct.std::_Optional_payload_base.base.114", [7 x i8] }
%"struct.std::_Optional_payload_base.base.114" = type <{ %"union.std::_Optional_payload_base<llvm::TargetLibraryInfo>::_Storage", i8 }>
%"union.std::_Optional_payload_base<llvm::TargetLibraryInfo>::_Storage" = type { %"class.llvm::TargetLibraryInfo" }
%"struct.std::_Optional_payload_base.113" = type <{ %"union.std::_Optional_payload_base<llvm::TargetLibraryInfo>::_Storage", i8, [7 x i8] }>
%"class.llvm::Pass" = type <{ ptr, ptr, ptr, i32, [4 x i8] }>
%"class.__gnu_cxx::__normal_iterator" = type { ptr }
%"class.llvm::AnalysisResolver" = type { %"class.std::vector.278", ptr }
%"class.std::vector.278" = type { %"struct.std::_Vector_base.279" }
%"struct.std::_Vector_base.279" = type { %"struct.std::_Vector_base<std::pair<const void *, llvm::Pass *>, std::allocator<std::pair<const void *, llvm::Pass *>>>::_Vector_impl" }
%"struct.std::_Vector_base<std::pair<const void *, llvm::Pass *>, std::allocator<std::pair<const void *, llvm::Pass *>>>::_Vector_impl" = type { %"struct.std::_Vector_base<std::pair<const void *, llvm::Pass *>, std::allocator<std::pair<const void *, llvm::Pass *>>>::_Vector_impl_data" }
%"struct.std::_Vector_base<std::pair<const void *, llvm::Pass *>, std::allocator<std::pair<const void *, llvm::Pass *>>>::_Vector_impl_data" = type { ptr, ptr, ptr }
%"struct.std::pair.283" = type { ptr, ptr }

@_ZN4llvm28TargetLibraryInfoWrapperPass2IDE = external global i8, align 1

; Function Attrs: mustprogress nounwind uwtable
define linkonce_odr void @_ZSt10_ConstructIN4llvm17TargetLibraryInfoEJS1_EEvPT_DpOT0_(ptr noundef %0, ptr noundef nonnull align 8 dereferenceable(72) %1) #1 comdat {
  %3 = alloca ptr, align 8
  %4 = alloca ptr, align 8
  store ptr %0, ptr %3, align 8
  store ptr %1, ptr %4, align 8
  %5 = load ptr, ptr %3, align 8
  %6 = load ptr, ptr %4, align 8
  call void @llvm.memcpy.p0.p0.i64(ptr align 8 %5, ptr align 8 %6, i64 72, i1 false)
  ret void
}

; Function Attrs: mustprogress nounwind uwtable
define linkonce_odr hidden noundef nonnull align 8 dereferenceable(8) ptr @_ZNK9__gnu_cxx17__normal_iteratorIPSt4pairIPKvPN4llvm4PassEESt6vectorIS7_SaIS7_EEE4baseEv(ptr noundef nonnull align 8 dereferenceable(8) %0) #1 comdat align 2 {
  %2 = alloca ptr, align 8
  store ptr %0, ptr %2, align 8
  %3 = load ptr, ptr %2, align 8
  %4 = getelementptr inbounds nuw %"class.__gnu_cxx::__normal_iterator", ptr %3, i32 0, i32 0
  ret ptr %4
}

; Function Attrs: mustprogress nounwind uwtable
define linkonce_odr hidden void @_ZN9__gnu_cxx17__normal_iteratorIPSt4pairIPKvPN4llvm4PassEESt6vectorIS7_SaIS7_EEEC2ERKS8_(ptr noundef nonnull align 8 dereferenceable(8) %0, ptr noundef nonnull align 8 dereferenceable(8) %1) unnamed_addr #1 comdat align 2 {
  %3 = alloca ptr, align 8
  %4 = alloca ptr, align 8
  store ptr %0, ptr %3, align 8
  store ptr %1, ptr %4, align 8
  %5 = load ptr, ptr %3, align 8
  %6 = getelementptr inbounds nuw %"class.__gnu_cxx::__normal_iterator", ptr %5, i32 0, i32 0
  %7 = load ptr, ptr %4, align 8
  %8 = load ptr, ptr %7, align 8
  store ptr %8, ptr %6, align 8
  ret void
}

; Function Attrs: mustprogress nounwind uwtable
define linkonce_odr hidden void @_ZNSt22_Optional_payload_baseIN4llvm17TargetLibraryInfoEE12_M_constructIJS1_EEEvDpOT_(ptr noundef nonnull align 8 dereferenceable(73) %0, ptr noundef nonnull align 8 dereferenceable(72) %1) #1 comdat align 2 {
  %3 = alloca ptr, align 8
  %4 = alloca ptr, align 8
  store ptr %0, ptr %3, align 8
  store ptr %1, ptr %4, align 8
  %5 = load ptr, ptr %3, align 8
  %6 = getelementptr inbounds nuw %"struct.std::_Optional_payload_base.113", ptr %5, i32 0, i32 0
  %7 = load ptr, ptr %4, align 8
  call void @_ZSt10_ConstructIN4llvm17TargetLibraryInfoEJS1_EEvPT_DpOT0_(ptr noundef %6, ptr noundef nonnull align 8 dereferenceable(72) %7)
  %8 = getelementptr inbounds nuw %"struct.std::_Optional_payload_base.113", ptr %5, i32 0, i32 1
  store i8 1, ptr %8, align 8
  ret void
}

; Function Attrs: mustprogress nounwind uwtable
define linkonce_odr hidden noundef nonnull align 8 dereferenceable(72) ptr @_ZNSt22_Optional_payload_baseIN4llvm17TargetLibraryInfoEE6_M_getEv(ptr noundef nonnull align 8 dereferenceable(73) %0) #1 comdat align 2 {
  %2 = alloca ptr, align 8
  store ptr %0, ptr %2, align 8
  %3 = load ptr, ptr %2, align 8
  %4 = getelementptr inbounds nuw %"struct.std::_Optional_payload_base.113", ptr %3, i32 0, i32 0
  ret ptr %4
}

; Function Attrs: mustprogress nounwind uwtable
define linkonce_odr hidden noundef nonnull align 8 dereferenceable(8) ptr @_ZN9__gnu_cxx17__normal_iteratorIPSt4pairIPKvPN4llvm4PassEESt6vectorIS7_SaIS7_EEEppEv(ptr noundef nonnull align 8 dereferenceable(8) %0) #1 comdat align 2 {
  %2 = alloca ptr, align 8
  store ptr %0, ptr %2, align 8
  %3 = load ptr, ptr %2, align 8
  %4 = getelementptr inbounds nuw %"class.__gnu_cxx::__normal_iterator", ptr %3, i32 0, i32 0
  %5 = load ptr, ptr %4, align 8
  %6 = getelementptr inbounds %"struct.std::pair.283", ptr %5, i32 1
  store ptr %6, ptr %4, align 8
  ret ptr %3
}

; Function Attrs: mustprogress nounwind uwtable
define linkonce_odr hidden noundef nonnull align 8 dereferenceable(16) ptr @_ZNK9__gnu_cxx17__normal_iteratorIPSt4pairIPKvPN4llvm4PassEESt6vectorIS7_SaIS7_EEEdeEv(ptr noundef nonnull align 8 dereferenceable(8) %0) #1 comdat align 2 {
  %2 = alloca ptr, align 8
  store ptr %0, ptr %2, align 8
  %3 = load ptr, ptr %2, align 8
  %4 = getelementptr inbounds nuw %"class.__gnu_cxx::__normal_iterator", ptr %3, i32 0, i32 0
  %5 = load ptr, ptr %4, align 8
  ret ptr %5
}

; Function Attrs: mustprogress nounwind uwtable
define linkonce_odr noundef zeroext i1 @_ZN9__gnu_cxxneIPSt4pairIPKvPN4llvm4PassEESt6vectorIS7_SaIS7_EEEEbRKNS_17__normal_iteratorIT_T0_EESH_(ptr noundef nonnull align 8 dereferenceable(8) %0, ptr noundef nonnull align 8 dereferenceable(8) %1) #1 comdat {
  %3 = alloca ptr, align 8
  %4 = alloca ptr, align 8
  store ptr %0, ptr %3, align 8
  store ptr %1, ptr %4, align 8
  %5 = load ptr, ptr %3, align 8
  %6 = call noundef nonnull align 8 dereferenceable(8) ptr @_ZNK9__gnu_cxx17__normal_iteratorIPSt4pairIPKvPN4llvm4PassEESt6vectorIS7_SaIS7_EEE4baseEv(ptr noundef nonnull align 8 dereferenceable(8) %5) #13
  %7 = load ptr, ptr %6, align 8
  %8 = load ptr, ptr %4, align 8
  %9 = call noundef nonnull align 8 dereferenceable(8) ptr @_ZNK9__gnu_cxx17__normal_iteratorIPSt4pairIPKvPN4llvm4PassEESt6vectorIS7_SaIS7_EEE4baseEv(ptr noundef nonnull align 8 dereferenceable(8) %8) #13
  %10 = load ptr, ptr %9, align 8
  %11 = icmp ne ptr %7, %10
  ret i1 %11
}

; Function Attrs: mustprogress nounwind uwtable
define linkonce_odr hidden ptr @_ZNSt6vectorISt4pairIPKvPN4llvm4PassEESaIS6_EE3endEv(ptr noundef nonnull align 8 dereferenceable(24) %0) #1 comdat align 2 {
  %2 = alloca %"class.__gnu_cxx::__normal_iterator", align 8
  %3 = alloca ptr, align 8
  store ptr %0, ptr %3, align 8
  %4 = load ptr, ptr %3, align 8
  %5 = getelementptr inbounds nuw %"struct.std::_Vector_base.279", ptr %4, i32 0, i32 0
  %6 = getelementptr inbounds nuw %"struct.std::_Vector_base<std::pair<const void *, llvm::Pass *>, std::allocator<std::pair<const void *, llvm::Pass *>>>::_Vector_impl_data", ptr %5, i32 0, i32 1
  call void @_ZN9__gnu_cxx17__normal_iteratorIPSt4pairIPKvPN4llvm4PassEESt6vectorIS7_SaIS7_EEEC2ERKS8_(ptr noundef nonnull align 8 dereferenceable(8) %2, ptr noundef nonnull align 8 dereferenceable(8) %6) #13
  %7 = getelementptr inbounds nuw %"class.__gnu_cxx::__normal_iterator", ptr %2, i32 0, i32 0
  %8 = load ptr, ptr %7, align 8
  ret ptr %8
}

; Function Attrs: mustprogress nounwind uwtable
define linkonce_odr hidden ptr @_ZNSt6vectorISt4pairIPKvPN4llvm4PassEESaIS6_EE5beginEv(ptr noundef nonnull align 8 dereferenceable(24) %0) #1 comdat align 2 {
  %2 = alloca %"class.__gnu_cxx::__normal_iterator", align 8
  %3 = alloca ptr, align 8
  store ptr %0, ptr %3, align 8
  %4 = load ptr, ptr %3, align 8
  %5 = getelementptr inbounds nuw %"struct.std::_Vector_base.279", ptr %4, i32 0, i32 0
  %6 = getelementptr inbounds nuw %"struct.std::_Vector_base<std::pair<const void *, llvm::Pass *>, std::allocator<std::pair<const void *, llvm::Pass *>>>::_Vector_impl_data", ptr %5, i32 0, i32 0
  call void @_ZN9__gnu_cxx17__normal_iteratorIPSt4pairIPKvPN4llvm4PassEESt6vectorIS7_SaIS7_EEEC2ERKS8_(ptr noundef nonnull align 8 dereferenceable(8) %2, ptr noundef nonnull align 8 dereferenceable(8) %6) #13
  %7 = getelementptr inbounds nuw %"class.__gnu_cxx::__normal_iterator", ptr %2, i32 0, i32 0
  %8 = load ptr, ptr %7, align 8
  ret ptr %8
}

; Function Attrs: mustprogress nounwind uwtable
define linkonce_odr hidden void @_ZNSt19_Optional_base_implIN4llvm17TargetLibraryInfoESt14_Optional_baseIS1_Lb1ELb1EEE12_M_constructIJS1_EEEvDpOT_(ptr noundef nonnull align 1 dereferenceable(1) %0, ptr noundef nonnull align 8 dereferenceable(72) %1) #1 comdat align 2 {
  %3 = alloca ptr, align 8
  %4 = alloca ptr, align 8
  store ptr %0, ptr %3, align 8
  store ptr %1, ptr %4, align 8
  %5 = load ptr, ptr %3, align 8
  %6 = getelementptr inbounds nuw %"struct.std::_Optional_base.110", ptr %5, i32 0, i32 0
  %7 = load ptr, ptr %4, align 8
  call void @_ZNSt22_Optional_payload_baseIN4llvm17TargetLibraryInfoEE12_M_constructIJS1_EEEvDpOT_(ptr noundef nonnull align 8 dereferenceable(73) %6, ptr noundef nonnull align 8 dereferenceable(72) %7) #13
  ret void
}

; Function Attrs: mustprogress nounwind uwtable
define linkonce_odr hidden noundef nonnull align 8 dereferenceable(72) ptr @_ZNSt19_Optional_base_implIN4llvm17TargetLibraryInfoESt14_Optional_baseIS1_Lb1ELb1EEE6_M_getEv(ptr noundef nonnull align 1 dereferenceable(1) %0) #1 comdat align 2 {
  %2 = alloca ptr, align 8
  store ptr %0, ptr %2, align 8
  %3 = load ptr, ptr %2, align 8
  br label %4

4:                                                ; preds = %1
  br label %5

5:                                                ; preds = %4
  %6 = getelementptr inbounds nuw %"struct.std::_Optional_base.110", ptr %3, i32 0, i32 0
  %7 = call noundef nonnull align 8 dereferenceable(72) ptr @_ZNSt22_Optional_payload_baseIN4llvm17TargetLibraryInfoEE6_M_getEv(ptr noundef nonnull align 8 dereferenceable(73) %6) #13
  ret ptr %7
}

; Function Attrs: mustprogress nounwind uwtable
define linkonce_odr hidden noundef zeroext i1 @_ZNKSt19_Optional_base_implIN4llvm17TargetLibraryInfoESt14_Optional_baseIS1_Lb1ELb1EEE13_M_is_engagedEv(ptr noundef nonnull align 1 dereferenceable(1) %0) #1 comdat align 2 {
  %2 = alloca ptr, align 8
  store ptr %0, ptr %2, align 8
  %3 = load ptr, ptr %2, align 8
  %4 = getelementptr inbounds nuw %"struct.std::_Optional_base.110", ptr %3, i32 0, i32 0
  %5 = getelementptr inbounds nuw %"struct.std::_Optional_payload_base.113", ptr %4, i32 0, i32 1
  %6 = load i8, ptr %5, align 8
  %7 = trunc i8 %6 to i1
  ret i1 %7
}

; Function Attrs: mustprogress nounwind uwtable
define linkonce_odr hidden noundef ptr @_ZN4llvm16AnalysisResolver12findImplPassEPKv(ptr noundef nonnull align 8 dereferenceable(32) %0, ptr noundef %1) #1 comdat align 2 {
  %3 = alloca ptr, align 8
  %4 = alloca ptr, align 8
  %5 = alloca ptr, align 8
  %6 = alloca ptr, align 8
  %7 = alloca %"class.__gnu_cxx::__normal_iterator", align 8
  %8 = alloca %"class.__gnu_cxx::__normal_iterator", align 8
  %9 = alloca ptr, align 8
  store ptr %0, ptr %3, align 8
  store ptr %1, ptr %4, align 8
  %10 = load ptr, ptr %3, align 8
  store ptr null, ptr %5, align 8
  %11 = getelementptr inbounds nuw %"class.llvm::AnalysisResolver", ptr %10, i32 0, i32 0
  store ptr %11, ptr %6, align 8
  %12 = load ptr, ptr %6, align 8
  %13 = call ptr @_ZNSt6vectorISt4pairIPKvPN4llvm4PassEESaIS6_EE5beginEv(ptr noundef nonnull align 8 dereferenceable(24) %12) #13
  %14 = getelementptr inbounds nuw %"class.__gnu_cxx::__normal_iterator", ptr %7, i32 0, i32 0
  store ptr %13, ptr %14, align 8
  %15 = load ptr, ptr %6, align 8
  %16 = call ptr @_ZNSt6vectorISt4pairIPKvPN4llvm4PassEESaIS6_EE3endEv(ptr noundef nonnull align 8 dereferenceable(24) %15) #13
  %17 = getelementptr inbounds nuw %"class.__gnu_cxx::__normal_iterator", ptr %8, i32 0, i32 0
  store ptr %16, ptr %17, align 8
  br label %18

18:                                               ; preds = %32, %2
  %19 = call noundef zeroext i1 @_ZN9__gnu_cxxneIPSt4pairIPKvPN4llvm4PassEESt6vectorIS7_SaIS7_EEEEbRKNS_17__normal_iteratorIT_T0_EESH_(ptr noundef nonnull align 8 dereferenceable(8) %7, ptr noundef nonnull align 8 dereferenceable(8) %8) #13
  br i1 %19, label %20, label %34

20:                                               ; preds = %18
  %21 = call noundef nonnull align 8 dereferenceable(16) ptr @_ZNK9__gnu_cxx17__normal_iteratorIPSt4pairIPKvPN4llvm4PassEESt6vectorIS7_SaIS7_EEEdeEv(ptr noundef nonnull align 8 dereferenceable(8) %7) #13
  store ptr %21, ptr %9, align 8
  %22 = load ptr, ptr %9, align 8
  %23 = getelementptr inbounds nuw %"struct.std::pair.283", ptr %22, i32 0, i32 0
  %24 = load ptr, ptr %23, align 8
  %25 = load ptr, ptr %4, align 8
  %26 = icmp eq ptr %24, %25
  br i1 %26, label %27, label %31

27:                                               ; preds = %20
  %28 = load ptr, ptr %9, align 8
  %29 = getelementptr inbounds nuw %"struct.std::pair.283", ptr %28, i32 0, i32 1
  %30 = load ptr, ptr %29, align 8
  store ptr %30, ptr %5, align 8
  br label %34

31:                                               ; preds = %20
  br label %32

32:                                               ; preds = %31
  %33 = call noundef nonnull align 8 dereferenceable(8) ptr @_ZN9__gnu_cxx17__normal_iteratorIPSt4pairIPKvPN4llvm4PassEESt6vectorIS7_SaIS7_EEEppEv(ptr noundef nonnull align 8 dereferenceable(8) %7) #13
  br label %18

34:                                               ; preds = %27, %18
  %35 = load ptr, ptr %5, align 8
  ret ptr %35
}

; Function Attrs: mustprogress nounwind uwtable
define linkonce_odr hidden noundef nonnull align 8 dereferenceable(72) ptr @_ZNRSt8optionalIN4llvm17TargetLibraryInfoEEdeEv(ptr noundef nonnull align 8 dereferenceable(80) %0) #1 comdat align 2 {
  %2 = alloca ptr, align 8
  store ptr %0, ptr %2, align 8
  %3 = load ptr, ptr %2, align 8
  %4 = call noundef nonnull align 8 dereferenceable(72) ptr @_ZNSt19_Optional_base_implIN4llvm17TargetLibraryInfoESt14_Optional_baseIS1_Lb1ELb1EEE6_M_getEv(ptr noundef nonnull align 1 dereferenceable(1) %3) #13
  ret ptr %4
}

; Function Attrs: mustprogress nounwind uwtable
define linkonce_odr hidden noundef nonnull align 8 dereferenceable(80) ptr @_ZNSt8optionalIN4llvm17TargetLibraryInfoEEaSIS1_EENSt9enable_ifIX7__and_vISt6__not_ISt7is_sameIS2_NSt9remove_cvINSt16remove_referenceIT_E4typeEE4typeEEES5_ISt6__and_IJSt9is_scalarIS1_ES6_IS1_NSt5decayIS9_E4typeEEEEESt16is_constructibleIS1_JS9_EESt13is_assignableIRS1_S9_EEERS2_E4typeEOS9_(ptr noundef nonnull align 8 dereferenceable(80) %0, ptr noundef nonnull align 8 dereferenceable(72) %1) #1 comdat align 2 {
  %3 = alloca ptr, align 8
  %4 = alloca ptr, align 8
  store ptr %0, ptr %3, align 8
  store ptr %1, ptr %4, align 8
  %5 = load ptr, ptr %3, align 8
  %6 = call noundef zeroext i1 @_ZNKSt19_Optional_base_implIN4llvm17TargetLibraryInfoESt14_Optional_baseIS1_Lb1ELb1EEE13_M_is_engagedEv(ptr noundef nonnull align 1 dereferenceable(1) %5) #13
  br i1 %6, label %7, label %10

7:                                                ; preds = %2
  %8 = load ptr, ptr %4, align 8
  %9 = call noundef nonnull align 8 dereferenceable(72) ptr @_ZNSt19_Optional_base_implIN4llvm17TargetLibraryInfoESt14_Optional_baseIS1_Lb1ELb1EEE6_M_getEv(ptr noundef nonnull align 1 dereferenceable(1) %5) #13
  call void @llvm.memcpy.p0.p0.i64(ptr align 8 %9, ptr align 8 %8, i64 72, i1 false)
  br label %12

10:                                               ; preds = %2
  %11 = load ptr, ptr %4, align 8
  call void @_ZNSt19_Optional_base_implIN4llvm17TargetLibraryInfoESt14_Optional_baseIS1_Lb1ELb1EEE12_M_constructIJS1_EEEvDpOT_(ptr noundef nonnull align 1 dereferenceable(1) %5, ptr noundef nonnull align 8 dereferenceable(72) %11) #13
  br label %12

12:                                               ; preds = %10, %7
  ret ptr %5
}

; Function Attrs: mustprogress nounwind uwtable
define linkonce_odr noundef nonnull align 8 dereferenceable(328) ptr @_ZNK4llvm4Pass13getAnalysisIDINS_28TargetLibraryInfoWrapperPassEEERT_PKv(ptr noundef nonnull align 8 dereferenceable(28) %0, ptr noundef %1) #1 comdat align 2 {
  %3 = alloca ptr, align 8
  %4 = alloca ptr, align 8
  %5 = alloca ptr, align 8
  store ptr %0, ptr %3, align 8
  store ptr %1, ptr %4, align 8
  %6 = load ptr, ptr %3, align 8
  %7 = getelementptr inbounds nuw %"class.llvm::Pass", ptr %6, i32 0, i32 1
  %8 = load ptr, ptr %7, align 8
  %9 = load ptr, ptr %4, align 8
  %10 = call noundef ptr @_ZN4llvm16AnalysisResolver12findImplPassEPKv(ptr noundef nonnull align 8 dereferenceable(32) %8, ptr noundef %9)
  store ptr %10, ptr %5, align 8
  %11 = load ptr, ptr %5, align 8
  %12 = load ptr, ptr %4, align 8
  %13 = load ptr, ptr %11, align 8
  %14 = getelementptr inbounds ptr, ptr %13, i64 12
  %15 = load ptr, ptr %14, align 8
  %16 = call noundef ptr %15(ptr noundef nonnull align 8 dereferenceable(28) %11, ptr noundef %12)
  ret ptr %16
}

; Function Attrs: mustprogress nounwind uwtable
define linkonce_odr hidden noundef nonnull align 8 dereferenceable(72) ptr @_ZN4llvm28TargetLibraryInfoWrapperPass6getTLIERKNS_8FunctionE(ptr noundef nonnull align 8 dereferenceable(328) %0, ptr noundef nonnull align 8 dereferenceable(136) %1) #1 comdat align 2 {
  %3 = alloca ptr, align 8
  %4 = alloca ptr, align 8
  %5 = alloca %"class.llvm::AnalysisManager", align 8
  %6 = alloca %"class.llvm::TargetLibraryInfo", align 8
  store ptr %0, ptr %3, align 8
  store ptr %1, ptr %4, align 8
  %7 = load ptr, ptr %3, align 8
  call void @_ZN4llvm15AnalysisManagerINS_8FunctionEJEEC1Ev(ptr noundef nonnull align 8 dereferenceable(72) %5)
  %8 = getelementptr inbounds nuw %"class.llvm::TargetLibraryInfoWrapperPass", ptr %7, i32 0, i32 2
  %9 = load ptr, ptr %4, align 8
  call void @_ZN4llvm21TargetLibraryAnalysis3runERKNS_8FunctionERNS_15AnalysisManagerIS1_JEEE(ptr dead_on_unwind writable sret(%"class.llvm::TargetLibraryInfo") align 8 %6, ptr noundef nonnull align 8 dereferenceable(216) %8, ptr noundef nonnull align 8 dereferenceable(136) %9, ptr noundef nonnull align 8 dereferenceable(72) %5)
  %10 = getelementptr inbounds nuw %"class.llvm::TargetLibraryInfoWrapperPass", ptr %7, i32 0, i32 3
  %11 = call noundef nonnull align 8 dereferenceable(80) ptr @_ZNSt8optionalIN4llvm17TargetLibraryInfoEEaSIS1_EENSt9enable_ifIX7__and_vISt6__not_ISt7is_sameIS2_NSt9remove_cvINSt16remove_referenceIT_E4typeEE4typeEEES5_ISt6__and_IJSt9is_scalarIS1_ES6_IS1_NSt5decayIS9_E4typeEEEEESt16is_constructibleIS1_JS9_EESt13is_assignableIRS1_S9_EEERS2_E4typeEOS9_(ptr noundef nonnull align 8 dereferenceable(80) %10, ptr noundef nonnull align 8 dereferenceable(72) %6) #13
  %12 = getelementptr inbounds nuw %"class.llvm::TargetLibraryInfoWrapperPass", ptr %7, i32 0, i32 3
  %13 = call noundef nonnull align 8 dereferenceable(72) ptr @_ZNRSt8optionalIN4llvm17TargetLibraryInfoEEdeEv(ptr noundef nonnull align 8 dereferenceable(80) %12) #13
  call void @_ZN4llvm15AnalysisManagerINS_8FunctionEJEED2Ev(ptr noundef nonnull align 8 dereferenceable(72) %5) #13
  ret ptr %13
}

; Function Attrs: mustprogress nounwind uwtable
define linkonce_odr noundef nonnull align 8 dereferenceable(328) ptr @_ZNK4llvm4Pass11getAnalysisINS_28TargetLibraryInfoWrapperPassEEERT_v(ptr noundef nonnull align 8 dereferenceable(28) %0) #1 comdat align 2 {
  %2 = alloca ptr, align 8
  store ptr %0, ptr %2, align 8
  %3 = load ptr, ptr %2, align 8
  %4 = call noundef nonnull align 8 dereferenceable(328) ptr @_ZNK4llvm4Pass13getAnalysisIDINS_28TargetLibraryInfoWrapperPassEEERT_PKv(ptr noundef nonnull align 8 dereferenceable(28) %3, ptr noundef @_ZN4llvm28TargetLibraryInfoWrapperPass2IDE)
  ret ptr %4
}

; Function Attrs: mustprogress nounwind uwtable
define dso_local noundef zeroext i1 @_ZN4llvm23ReplaceWithVeclibLegacy13runOnFunctionERNS_8FunctionE(ptr noundef nonnull align 8 dereferenceable(28) %0, ptr noundef nonnull align 8 dereferenceable(136) %1) unnamed_addr #1 align 2 {
  %3 = alloca ptr, align 8
  %4 = alloca ptr, align 8
  %5 = alloca ptr, align 8
  store ptr %0, ptr %3, align 8
  store ptr %1, ptr %4, align 8
  %6 = load ptr, ptr %3, align 8
  %7 = call noundef nonnull align 8 dereferenceable(328) ptr @_ZNK4llvm4Pass11getAnalysisINS_28TargetLibraryInfoWrapperPassEEERT_v(ptr noundef nonnull align 8 dereferenceable(28) %6)
  %8 = load ptr, ptr %4, align 8
  %9 = call noundef nonnull align 8 dereferenceable(72) ptr @_ZN4llvm28TargetLibraryInfoWrapperPass6getTLIERKNS_8FunctionE(ptr noundef nonnull align 8 dereferenceable(328) %7, ptr noundef nonnull align 8 dereferenceable(136) %8)
  store ptr %9, ptr %5, align 8
  %10 = load ptr, ptr %5, align 8
  %11 = load ptr, ptr %4, align 8
  %12 = call noundef zeroext i1 @_ZL7runImplRKN4llvm17TargetLibraryInfoERNS_8FunctionE(ptr noundef nonnull align 8 dereferenceable(72) %10, ptr noundef nonnull align 8 dereferenceable(136) %11)
  ret i1 %12
}