; Function Attrs: mustprogress nounwind uwtable
define dso_local noundef zeroext i1 @_ZN4llvm23ReplaceWithVeclibLegacy13runOnFunctionERNS_8FunctionE(ptr noundef nonnull readonly align 8 captures(none) dereferenceable(28) %0, ptr noundef nonnull align 8 dereferenceable(136) %1) unnamed_addr #0 align 2 {
  %3 = alloca %"class.llvm::AnalysisManager", align 8
  %4 = alloca %"class.llvm::TargetLibraryInfo", align 8
  %5 = getelementptr inbounds nuw i8, ptr %0, i64 8
  %6 = load ptr, ptr %5, align 8
  %7 = load ptr, ptr %6, align 8
  %8 = getelementptr inbounds nuw i8, ptr %6, i64 8
  %9 = load ptr, ptr %8, align 8
  %.not11.i.i.i = icmp ne ptr %7, %9
  tail call void @llvm.assume(i1 %.not11.i.i.i)
  %10 = load ptr, ptr %7, align 8
  %11 = icmp eq ptr %10, @_ZN4llvm28TargetLibraryInfoWrapperPass2IDE
  br i1 %11, label %_ZNK4llvm4Pass11getAnalysisINS_28TargetLibraryInfoWrapperPassEEERT_v.exit, label %.lr.ph.i.i.i

.lr.ph.i.i.i:                                     ; preds = %2, %.lr.ph.i.i.i
  %.sroa.07.012.i4.i.i = phi ptr [ %12, %.lr.ph.i.i.i ], [ %7, %2 ]
  %12 = getelementptr inbounds nuw i8, ptr %.sroa.07.012.i4.i.i, i64 16
  %.not.i.i.i = icmp ne ptr %12, %9
  tail call void @llvm.assume(i1 %.not.i.i.i)
  %13 = load ptr, ptr %12, align 8
  %14 = icmp eq ptr %13, @_ZN4llvm28TargetLibraryInfoWrapperPass2IDE
  br i1 %14, label %_ZNK4llvm4Pass11getAnalysisINS_28TargetLibraryInfoWrapperPassEEERT_v.exit, label %.lr.ph.i.i.i

_ZNK4llvm4Pass11getAnalysisINS_28TargetLibraryInfoWrapperPassEEERT_v.exit: ; preds = %.lr.ph.i.i.i, %2
  %.sroa.07.012.i.lcssa.i.i = phi ptr [ %7, %2 ], [ %12, %.lr.ph.i.i.i ]
  %15 = getelementptr inbounds nuw i8, ptr %.sroa.07.012.i.lcssa.i.i, i64 8
  %16 = load ptr, ptr %15, align 8
  %17 = load ptr, ptr %16, align 8
  %18 = getelementptr inbounds nuw i8, ptr %17, i64 96
  %19 = load ptr, ptr %18, align 8
  %20 = tail call noundef nonnull align 8 dereferenceable(328) ptr %19(ptr noundef nonnull align 8 dereferenceable(28) %16, ptr noundef nonnull @_ZN4llvm28TargetLibraryInfoWrapperPass2IDE) #12
  call void @llvm.lifetime.start.p0(i64 72, ptr nonnull %3)
  call void @llvm.lifetime.start.p0(i64 72, ptr nonnull %4)
  call void @_ZN4llvm15AnalysisManagerINS_8FunctionEJEEC1Ev(ptr noundef nonnull align 8 dereferenceable(72) %3) #12
  %21 = getelementptr inbounds nuw i8, ptr %20, i64 32
  call void @_ZN4llvm21TargetLibraryAnalysis3runERKNS_8FunctionERNS_15AnalysisManagerIS1_JEEE(ptr dead_on_unwind nonnull writable sret(%"class.llvm::TargetLibraryInfo") align 8 %4, ptr noundef nonnull align 8 dereferenceable(216) %21, ptr noundef nonnull align 8 dereferenceable(136) %1, ptr noundef nonnull align 8 dereferenceable(72) %3) #12
  %22 = getelementptr inbounds nuw i8, ptr %20, i64 248
  %23 = getelementptr inbounds nuw i8, ptr %20, i64 320
  %24 = load i8, ptr %23, align 8
  %25 = trunc i8 %24 to i1
  call void @llvm.memcpy.p0.p0.i64(ptr noundef nonnull align 8 dereferenceable(80) %22, ptr noundef nonnull align 8 dereferenceable(72) %4, i64 72, i1 false)
  br i1 %25, label %_ZN4llvm28TargetLibraryInfoWrapperPass6getTLIERKNS_8FunctionE.exit, label %26

26:                                               ; preds = %_ZNK4llvm4Pass11getAnalysisINS_28TargetLibraryInfoWrapperPassEEERT_v.exit
  store i8 1, ptr %23, align 8
  br label %_ZN4llvm28TargetLibraryInfoWrapperPass6getTLIERKNS_8FunctionE.exit

_ZN4llvm28TargetLibraryInfoWrapperPass6getTLIERKNS_8FunctionE.exit: ; preds = %_ZNK4llvm4Pass11getAnalysisINS_28TargetLibraryInfoWrapperPassEEERT_v.exit, %26
  call void @_ZN4llvm15AnalysisManagerINS_8FunctionEJEED2Ev(ptr noundef nonnull align 8 dereferenceable(72) %3) #12
  call void @llvm.lifetime.end.p0(i64 72, ptr nonnull %3)
  call void @llvm.lifetime.end.p0(i64 72, ptr nonnull %4)
  %27 = call fastcc noundef zeroext i1 @_ZL7runImplRKN4llvm17TargetLibraryInfoERNS_8FunctionE(ptr noundef nonnull align 8 dereferenceable(72) %22, ptr noundef nonnull align 8 dereferenceable(136) %1)
  ret i1 %27
}